; Function Attrs: nounwind sspstrong uwtable
define internal i64 @time_zone(i64 noundef %0) #1 {
  %2 = tail call ptr @rb_check_typeddata(i64 noundef %0, ptr noundef nonnull @time_data_type) #21
  %3 = getelementptr inbounds nuw i8, ptr %2, i64 40
  %4 = load i64, ptr %3, align 8
  %5 = and i64 %4, 61572651155456
  %.not.i = icmp eq i64 %5, 26388279066624
  br i1 %.not.i, label %6, label %get_timeval.exit

6:                                                ; preds = %1
  %7 = load i64, ptr @rb_eTypeError, align 8, !tbaa !11
  %8 = tail call i64 @rb_obj_class(i64 noundef %0) #21
  tail call void (i64, ptr, ...) @rb_raise(i64 noundef %7, ptr noundef nonnull @.str.92, i64 noundef %8) #22
  unreachable

get_timeval.exit:                                 ; preds = %1
  %9 = and i64 %4, 70368744177664
  %10 = icmp eq i64 %9, 0
  br i1 %10, label %11, label %time_get_tm.exit

11:                                               ; preds = %get_timeval.exit
  %12 = lshr i64 %4, 43
  %13 = trunc nuw nsw i64 %12 to i32
  %14 = and i32 %13, 7
  switch i32 %14, label %19 [
    i32 1, label %15
    i32 2, label %17
  ]

15:                                               ; preds = %11
  %16 = tail call i64 @time_gmtime(i64 noundef %0)
  br label %time_get_tm.exit

17:                                               ; preds = %11
  %18 = tail call fastcc i64 @time_fixoff(i64 noundef %0)
  br label %time_get_tm.exit

19:                                               ; preds = %11
  %20 = tail call fastcc i64 @time_localtime(i64 noundef %0)
  br label %time_get_tm.exit

time_get_tm.exit:                                 ; preds = %19, %17, %15, %get_timeval.exit
  %21 = load i64, ptr %3, align 8
  %22 = and i64 %21, 61572651155456
  %23 = icmp eq i64 %22, 8796093022208
  br i1 %23, label %24, label %26

24:                                               ; preds = %time_get_tm.exit
  %25 = tail call i64 @rb_usascii_str_new_static(ptr noundef nonnull @.str.33, i64 noundef 3) #21
  br label %rbimpl_RB_TYPE_P_fastpath.exit.thread

26:                                               ; preds = %time_get_tm.exit
  %27 = getelementptr inbounds nuw i8, ptr %2, i64 32
  %28 = load i64, ptr %27, align 8, !tbaa !29
  %29 = icmp eq i64 %28, 4
  br i1 %29, label %rbimpl_RB_TYPE_P_fastpath.exit.thread, label %30

30:                                               ; preds = %26
  %31 = icmp eq i64 %28, 0
  %32 = and i64 %28, 7
  %33 = icmp ne i64 %32, 0
  %34 = or i1 %31, %33
  br i1 %34, label %rbimpl_RB_TYPE_P_fastpath.exit.thread, label %rbimpl_RB_TYPE_P_fastpath.exit

rbimpl_RB_TYPE_P_fastpath.exit:                   ; preds = %30
  %35 = inttoptr i64 %28 to ptr
  %36 = load i64, ptr %35, align 8, !tbaa !15
  %37 = and i64 %36, 31
  %38 = icmp eq i64 %37, 5
  br i1 %38, label %39, label %rbimpl_RB_TYPE_P_fastpath.exit.thread

39:                                               ; preds = %rbimpl_RB_TYPE_P_fastpath.exit
  %40 = tail call i64 @rb_str_dup(i64 noundef %28) #21
  br label %rbimpl_RB_TYPE_P_fastpath.exit.thread

rbimpl_RB_TYPE_P_fastpath.exit.thread:            ; preds = %30, %rbimpl_RB_TYPE_P_fastpath.exit, %39, %26, %24
  %.010 = phi i64 [ %25, %24 ], [ 4, %26 ], [ %40, %39 ], [ %28, %rbimpl_RB_TYPE_P_fastpath.exit ], [ %28, %30 ]
  ret i64 %.010
}